target datalayout = "e-m:e-p270:32:32-p271:32:32-p272:64:64-i64:64-i128:128-f80:128-n8:16:32:64-S128"
target triple = "x86_64-pc-linux-gnu"

%class.ComprDataIO = type <{ i8, [7 x i8], i64, ptr, i8, [7 x i8], i64, ptr, i64, ptr, i64, i64, i8, i8, i8, i8, [4 x i8], ptr, ptr, ptr, ptr, ptr, ptr, ptr, i32, i32, i8, i8, i8, [5 x i8], i64, i64, i64, i64, i64, i64, i64, %class.DataHash, %class.DataHash, %class.DataHash, i8, i8, [6 x i8] }>
%class.DataHash = type { i32, i32, ptr }

; Function Attrs: mustprogress nounwind uwtable
define void @_ZN11ComprDataIO15GetUnpackedDataEPPhPm(ptr noundef nonnull align 8 dereferenceable(266) %0, ptr noundef %1, ptr noundef %2) #4 align 2 {
  %4 = alloca ptr, align 8
  %5 = alloca ptr, align 8
  %6 = alloca ptr, align 8
  store ptr %0, ptr %4, align 8
  store ptr %1, ptr %5, align 8
  store ptr %2, ptr %6, align 8
  %7 = load ptr, ptr %4, align 8
  %8 = getelementptr inbounds %class.ComprDataIO, ptr %7, i32 0, i32 9
  %9 = load ptr, ptr %8, align 8
  %10 = load ptr, ptr %5, align 8
  store ptr %9, ptr %10, align 8
  %11 = getelementptr inbounds %class.ComprDataIO, ptr %7, i32 0, i32 8
  %12 = load i64, ptr %11, align 8
  %13 = load ptr, ptr %6, align 8
  store i64 %12, ptr %13, align 8
  ret void
}